; Function Attrs: mustprogress nofree norecurse nosync nounwind willreturn memory(argmem: write) uwtable
define void @_ZN2cv9ExceptionC2Ev(ptr noundef nonnull align 8 dereferenceable(148) initializes((0, 8)) %0) unnamed_addr #8 align 2 personality ptr @__gxx_personality_v0 {
  store ptr getelementptr inbounds nuw inrange(-16, 24) (i8, ptr @_ZTVN2cv9ExceptionE, i64 16), ptr %0, align 8, !tbaa !25
  %2 = getelementptr inbounds nuw i8, ptr %0, i64 8
  %3 = getelementptr inbounds nuw i8, ptr %0, i64 24
  store ptr %3, ptr %2, align 8, !tbaa !16
  %4 = getelementptr inbounds nuw i8, ptr %0, i64 16
  store i64 0, ptr %4, align 8, !tbaa !24
  store i8 0, ptr %3, align 8, !tbaa !23
  %5 = getelementptr inbounds nuw i8, ptr %0, i64 48
  %6 = getelementptr inbounds nuw i8, ptr %0, i64 64
  store ptr %6, ptr %5, align 8, !tbaa !16
  %7 = getelementptr inbounds nuw i8, ptr %0, i64 56
  store i64 0, ptr %7, align 8, !tbaa !24
  store i8 0, ptr %6, align 8, !tbaa !23
  %8 = getelementptr inbounds nuw i8, ptr %0, i64 80
  %9 = getelementptr inbounds nuw i8, ptr %0, i64 96
  store ptr %9, ptr %8, align 8, !tbaa !16
  %10 = getelementptr inbounds nuw i8, ptr %0, i64 88
  store i64 0, ptr %10, align 8, !tbaa !24
  store i8 0, ptr %9, align 8, !tbaa !23
  %11 = getelementptr inbounds nuw i8, ptr %0, i64 112
  %12 = getelementptr inbounds nuw i8, ptr %0, i64 128
  store ptr %12, ptr %11, align 8, !tbaa !16
  %13 = getelementptr inbounds nuw i8, ptr %0, i64 120
  store i64 0, ptr %13, align 8, !tbaa !24
  store i8 0, ptr %12, align 8, !tbaa !23
  %14 = getelementptr inbounds nuw i8, ptr %0, i64 40
  store i32 0, ptr %14, align 8, !tbaa !27
  %15 = getelementptr inbounds nuw i8, ptr %0, i64 144
  store i32 0, ptr %15, align 8, !tbaa !30
  ret void
}